target datalayout = "e-m:e-p270:32:32-p271:32:32-p272:64:64-i64:64-i128:128-f80:128-n8:16:32:64-S128"
target triple = "x86_64-pc-linux-gnu"

%class.BCEscapeAnalyzer = type <{ ptr, i8, [7 x i8], ptr, ptr, i32, [4 x i8], %class.VectorSet, %class.VectorSet, %class.VectorSet, ptr, i8, i8, i8, i8, [4 x i8], %class.GrowableArray, ptr, ptr, i32, [4 x i8] }>
%class.VectorSet = type { i32, ptr, i32, ptr }
%class.GrowableArray = type { %class.GrowableArrayWithAllocator, %class.GrowableArrayMetadata }
%class.GrowableArrayWithAllocator = type { %class.GrowableArrayView }
%class.GrowableArrayView = type { %class.GrowableArrayBase, ptr }
%class.GrowableArrayBase = type { i32, i32 }
%class.GrowableArrayMetadata = type { i64 }

; Function Attrs: mustprogress nounwind uwtable
define hidden void @_ZN16BCEscapeAnalyzer28compute_escape_for_intrinsicE13vmIntrinsicID(ptr noundef nonnull align 8 dereferenceable(196) %0, i32 noundef %1) #1 align 2 {
  %3 = alloca ptr, align 8
  %4 = alloca i32, align 4
  store ptr %0, ptr %3, align 8
  store i32 %1, ptr %4, align 4
  %5 = load ptr, ptr %3, align 8
  %6 = load i32, ptr %4, align 4
  switch i32 %6, label %11 [
    i32 2, label %7
    i32 1, label %10
  ]

7:                                                ; preds = %2
  %8 = getelementptr inbounds %class.BCEscapeAnalyzer, ptr %5, i32 0, i32 11
  store i8 0, ptr %8, align 8
  %9 = getelementptr inbounds %class.BCEscapeAnalyzer, ptr %5, i32 0, i32 12
  store i8 0, ptr %9, align 1
  br label %12

10:                                               ; preds = %2
  br label %12

11:                                               ; preds = %2
  br label %12

12:                                               ; preds = %11, %10, %7
  ret void
}