; Function Attrs: mustprogress nofree norecurse nosync nounwind willreturn memory(argmem: write) uwtable
define hidden void @_ZN16BCEscapeAnalyzer28compute_escape_for_intrinsicE13vmIntrinsicID(ptr nocapture noundef nonnull writeonly align 8 dereferenceable(196) %0, i32 noundef %1) local_unnamed_addr #7 align 2 {
  %cond = icmp eq i32 %1, 2
  br i1 %cond, label %3, label %6

3:                                                ; preds = %2
  %4 = getelementptr inbounds i8, ptr %0, i64 144
  store i8 0, ptr %4, align 8
  %5 = getelementptr inbounds i8, ptr %0, i64 145
  store i8 0, ptr %5, align 1
  br label %6

6:                                                ; preds = %2, %3
  ret void
}